target datalayout = "e-m:e-p270:32:32-p271:32:32-p272:64:64-i64:64-i128:128-f80:128-n8:16:32:64-S128"
target triple = "x86_64-pc-linux-gnu"

%class.mpfx = type { i32 }
%class._scoped_numeral = type <{ ptr, %class.mpfx, [4 x i8] }>

; Function Attrs: mustprogress nounwind uwtable
define linkonce_odr hidden void @_ZN4mpfxC2Ev(ptr noundef nonnull align 4 dereferenceable(4) %0) unnamed_addr #5 comdat align 2 {
  %2 = alloca ptr, align 8
  store ptr %0, ptr %2, align 8, !tbaa !28
  %3 = load ptr, ptr %2, align 8
  %4 = load i32, ptr %3, align 4
  %5 = and i32 %4, -2
  %6 = or i32 %5, 0
  store i32 %6, ptr %3, align 4
  %7 = load i32, ptr %3, align 4
  %8 = and i32 %7, 1
  %9 = or i32 %8, 0
  store i32 %9, ptr %3, align 4
  ret void
}

; Function Attrs: mustprogress nounwind uwtable
define linkonce_odr hidden noundef nonnull align 4 dereferenceable(4) ptr @_ZN15_scoped_numeralI12mpfx_managerEcvR4mpfxEv(ptr noundef nonnull align 8 dereferenceable(12) %0) #5 comdat align 2 {
  %2 = alloca ptr, align 8
  store ptr %0, ptr %2, align 8, !tbaa !53
  %3 = load ptr, ptr %2, align 8
  %4 = getelementptr inbounds nuw %class._scoped_numeral, ptr %3, i32 0, i32 1
  ret ptr %4
}

; Function Attrs: mustprogress uwtable
define linkonce_odr hidden void @_ZN15_scoped_numeralI12mpfx_managerEC2ERS0_(ptr noundef nonnull align 8 dereferenceable(12) %0, ptr noundef nonnull align 8 dereferenceable(85) %1) unnamed_addr #4 comdat align 2 {
  %3 = alloca ptr, align 8
  %4 = alloca ptr, align 8
  store ptr %0, ptr %3, align 8, !tbaa !53
  store ptr %1, ptr %4, align 8, !tbaa !3
  %5 = load ptr, ptr %3, align 8
  %6 = getelementptr inbounds nuw %class._scoped_numeral, ptr %5, i32 0, i32 0
  %7 = load ptr, ptr %4, align 8, !tbaa !3
  store ptr %7, ptr %6, align 8, !tbaa !3
  %8 = getelementptr inbounds nuw %class._scoped_numeral, ptr %5, i32 0, i32 1
  call void @_ZN4mpfxC2Ev(ptr noundef nonnull align 4 dereferenceable(4) %8)
  ret void
}

; Function Attrs: mustprogress uwtable
define hidden void @_ZN12mpfx_manager3setER4mpfxlm(ptr noundef nonnull align 8 dereferenceable(85) %0, ptr noundef nonnull align 4 dereferenceable(4) %1, i64 noundef %2, i64 noundef %3) #4 align 2 personality ptr @__gxx_personality_v0 {
  %5 = alloca ptr, align 8
  %6 = alloca ptr, align 8
  %7 = alloca i64, align 8
  %8 = alloca i64, align 8
  %9 = alloca %class._scoped_numeral, align 8
  %10 = alloca %class._scoped_numeral, align 8
  %11 = alloca ptr, align 8
  %12 = alloca i32, align 4
  store ptr %0, ptr %5, align 8, !tbaa !3
  store ptr %1, ptr %6, align 8, !tbaa !28
  store i64 %2, ptr %7, align 8, !tbaa !44
  store i64 %3, ptr %8, align 8, !tbaa !44
  %13 = load ptr, ptr %5, align 8
  call void @llvm.lifetime.start.p0(i64 16, ptr %9) #3
  call void @_ZN15_scoped_numeralI12mpfx_managerEC2ERS0_(ptr noundef nonnull align 8 dereferenceable(12) %9, ptr noundef nonnull align 8 dereferenceable(85) %13)
  call void @llvm.lifetime.start.p0(i64 16, ptr %10) #3
  invoke void @_ZN15_scoped_numeralI12mpfx_managerEC2ERS0_(ptr noundef nonnull align 8 dereferenceable(12) %10, ptr noundef nonnull align 8 dereferenceable(85) %13)
          to label %14 unwind label %29

14:                                               ; preds = %4
  %15 = invoke noundef nonnull align 4 dereferenceable(4) ptr @_ZN15_scoped_numeralI12mpfx_managerEcvR4mpfxEv(ptr noundef nonnull align 8 dereferenceable(12) %9)
          to label %16 unwind label %33

16:                                               ; preds = %14
  %17 = load i64, ptr %7, align 8, !tbaa !44
  invoke void @_ZN12mpfx_manager3setER4mpfxl(ptr noundef nonnull align 8 dereferenceable(85) %13, ptr noundef nonnull align 4 dereferenceable(4) %15, i64 noundef %17)
          to label %18 unwind label %33

18:                                               ; preds = %16
  %19 = invoke noundef nonnull align 4 dereferenceable(4) ptr @_ZN15_scoped_numeralI12mpfx_managerEcvR4mpfxEv(ptr noundef nonnull align 8 dereferenceable(12) %10)
          to label %20 unwind label %33

20:                                               ; preds = %18
  %21 = load i64, ptr %8, align 8, !tbaa !44
  invoke void @_ZN12mpfx_manager3setER4mpfxm(ptr noundef nonnull align 8 dereferenceable(85) %13, ptr noundef nonnull align 4 dereferenceable(4) %19, i64 noundef %21)
          to label %22 unwind label %33

22:                                               ; preds = %20
  %23 = invoke noundef nonnull align 4 dereferenceable(4) ptr @_ZN15_scoped_numeralI12mpfx_managerEcvR4mpfxEv(ptr noundef nonnull align 8 dereferenceable(12) %9)
          to label %24 unwind label %33

24:                                               ; preds = %22
  %25 = invoke noundef nonnull align 4 dereferenceable(4) ptr @_ZN15_scoped_numeralI12mpfx_managerEcvR4mpfxEv(ptr noundef nonnull align 8 dereferenceable(12) %10)
          to label %26 unwind label %33

26:                                               ; preds = %24
  %27 = load ptr, ptr %6, align 8, !tbaa !28
  invoke void @_ZN12mpfx_manager3divERK4mpfxS2_RS0_(ptr noundef nonnull align 8 dereferenceable(85) %13, ptr noundef nonnull align 4 dereferenceable(4) %23, ptr noundef nonnull align 4 dereferenceable(4) %25, ptr noundef nonnull align 4 dereferenceable(4) %27)
          to label %28 unwind label %33

28:                                               ; preds = %26
  call void @_ZN15_scoped_numeralI12mpfx_managerED2Ev(ptr noundef nonnull align 8 dereferenceable(12) %10) #3
  call void @llvm.lifetime.end.p0(i64 16, ptr %10) #3
  call void @_ZN15_scoped_numeralI12mpfx_managerED2Ev(ptr noundef nonnull align 8 dereferenceable(12) %9) #3
  call void @llvm.lifetime.end.p0(i64 16, ptr %9) #3
  ret void

29:                                               ; preds = %4
  %30 = landingpad { ptr, i32 }
          cleanup
  %31 = extractvalue { ptr, i32 } %30, 0
  store ptr %31, ptr %11, align 8
  %32 = extractvalue { ptr, i32 } %30, 1
  store i32 %32, ptr %12, align 4
  br label %37

33:                                               ; preds = %26, %24, %22, %20, %18, %16, %14
  %34 = landingpad { ptr, i32 }
          cleanup
  %35 = extractvalue { ptr, i32 } %34, 0
  store ptr %35, ptr %11, align 8
  %36 = extractvalue { ptr, i32 } %34, 1
  store i32 %36, ptr %12, align 4
  call void @_ZN15_scoped_numeralI12mpfx_managerED2Ev(ptr noundef nonnull align 8 dereferenceable(12) %10) #3
  br label %37

37:                                               ; preds = %33, %29
  call void @llvm.lifetime.end.p0(i64 16, ptr %10) #3
  call void @_ZN15_scoped_numeralI12mpfx_managerED2Ev(ptr noundef nonnull align 8 dereferenceable(12) %9) #3
  call void @llvm.lifetime.end.p0(i64 16, ptr %9) #3
  br label %38

38:                                               ; preds = %37
  %39 = load ptr, ptr %11, align 8
  %40 = load i32, ptr %12, align 4
  %41 = insertvalue { ptr, i32 } poison, ptr %39, 0
  %42 = insertvalue { ptr, i32 } %41, i32 %40, 1
  resume { ptr, i32 } %42
}