; Function Attrs: mustprogress uwtable
define hidden void @_ZN12mpfx_manager3setER4mpfxlm(ptr noundef nonnull align 8 dereferenceable(85) %0, ptr noundef nonnull align 4 captures(none) dereferenceable(4) %1, i64 noundef %2, i64 noundef %3) local_unnamed_addr #3 align 2 personality ptr @__gxx_personality_v0 {
  %5 = alloca %class._scoped_numeral, align 8
  %6 = alloca %class._scoped_numeral, align 8
  call void @llvm.lifetime.start.p0(i64 16, ptr nonnull %5) #24
  store ptr %0, ptr %5, align 8, !tbaa !43
  %7 = getelementptr inbounds nuw i8, ptr %5, i64 8
  store i32 0, ptr %7, align 8
  call void @llvm.lifetime.start.p0(i64 16, ptr nonnull %6) #24
  store ptr %0, ptr %6, align 8, !tbaa !43
  %8 = getelementptr inbounds nuw i8, ptr %6, i64 8
  store i32 0, ptr %8, align 8
  invoke void @_ZN12mpfx_manager3setER4mpfxl(ptr noundef nonnull align 8 dereferenceable(85) %0, ptr noundef nonnull align 4 dereferenceable(4) %7, i64 noundef %2)
          to label %9 unwind label %84

9:                                                ; preds = %4
  invoke void @_ZN12mpfx_manager3setER4mpfxm(ptr noundef nonnull align 8 dereferenceable(85) %0, ptr noundef nonnull align 4 dereferenceable(4) %8, i64 noundef %3)
          to label %10 unwind label %84

10:                                               ; preds = %9
  invoke void @_ZN12mpfx_manager3divERK4mpfxS2_RS0_(ptr noundef nonnull align 8 dereferenceable(85) %0, ptr noundef nonnull align 4 dereferenceable(4) %7, ptr noundef nonnull align 4 dereferenceable(4) %8, ptr noundef nonnull align 4 dereferenceable(4) %1)
          to label %11 unwind label %84

11:                                               ; preds = %10
  %12 = load ptr, ptr %6, align 8, !tbaa !45
  %13 = load i32, ptr %8, align 8
  %.not.i.i = icmp ult i32 %13, 2
  br i1 %.not.i.i, label %_ZN15_scoped_numeralI12mpfx_managerED2Ev.exit, label %14

14:                                               ; preds = %11
  %15 = lshr i32 %13, 1
  %16 = invoke noundef zeroext i1 @_ZN6memory16is_out_of_memoryEv()
          to label %.noexc.i unwind label %45

.noexc.i:                                         ; preds = %14
  br i1 %16, label %_ZN6id_gen7recycleEj.exit.i.i, label %17

17:                                               ; preds = %.noexc.i
  %18 = getelementptr inbounds nuw i8, ptr %12, i64 40
  %19 = load ptr, ptr %18, align 8, !tbaa !3
  %20 = icmp eq ptr %19, null
  br i1 %20, label %27, label %21

21:                                               ; preds = %17
  %22 = getelementptr inbounds i8, ptr %19, i64 -4
  %23 = load i32, ptr %22, align 4, !tbaa !22
  %24 = getelementptr inbounds i8, ptr %19, i64 -8
  %25 = load i32, ptr %24, align 4, !tbaa !22
  %26 = icmp eq i32 %23, %25
  br i1 %26, label %27, label %_ZN6vectorIjLb0EjE9push_backERKj.exit.i.i.i

27:                                               ; preds = %21, %17
  invoke void @_ZN6vectorIjLb0EjE13expand_vectorEv(ptr noundef nonnull align 8 dereferenceable(8) %18)
          to label %.noexc1.i unwind label %45

.noexc1.i:                                        ; preds = %27
  %.pre.i.i.i.i = load ptr, ptr %18, align 8, !tbaa !3
  %.phi.trans.insert.i.i.i.i = getelementptr inbounds i8, ptr %.pre.i.i.i.i, i64 -4
  %.pre2.i.i.i.i = load i32, ptr %.phi.trans.insert.i.i.i.i, align 4, !tbaa !22
  br label %_ZN6vectorIjLb0EjE9push_backERKj.exit.i.i.i

_ZN6vectorIjLb0EjE9push_backERKj.exit.i.i.i:      ; preds = %.noexc1.i, %21
  %28 = phi i32 [ %.pre2.i.i.i.i, %.noexc1.i ], [ %23, %21 ]
  %29 = phi ptr [ %.pre.i.i.i.i, %.noexc1.i ], [ %19, %21 ]
  %30 = getelementptr inbounds i8, ptr %29, i64 -4
  %31 = zext i32 %28 to i64
  %32 = getelementptr inbounds nuw i32, ptr %29, i64 %31
  store i32 %15, ptr %32, align 4, !tbaa !22
  %33 = add i32 %28, 1
  store i32 %33, ptr %30, align 4, !tbaa !22
  br label %_ZN6id_gen7recycleEj.exit.i.i

_ZN6id_gen7recycleEj.exit.i.i:                    ; preds = %_ZN6vectorIjLb0EjE9push_backERKj.exit.i.i.i, %.noexc.i
  %34 = getelementptr inbounds nuw i8, ptr %12, i64 16
  %35 = load ptr, ptr %34, align 8, !tbaa !3
  %36 = getelementptr inbounds nuw i8, ptr %12, i64 8
  %37 = load i32, ptr %36, align 8, !tbaa !19
  %38 = mul i32 %15, %37
  %39 = zext i32 %38 to i64
  %40 = getelementptr inbounds nuw i32, ptr %35, i64 %39
  %.not10.i.i = icmp eq i32 %37, 0
  br i1 %.not10.i.i, label %_ZN15_scoped_numeralI12mpfx_managerED2Ev.exit, label %.lr.ph.i.i

.lr.ph.i.i:                                       ; preds = %_ZN6id_gen7recycleEj.exit.i.i, %.lr.ph.i.i
  %indvars.iv.i.i = phi i64 [ %indvars.iv.next.i.i, %.lr.ph.i.i ], [ 0, %_ZN6id_gen7recycleEj.exit.i.i ]
  %41 = getelementptr inbounds nuw i32, ptr %40, i64 %indvars.iv.i.i
  store i32 0, ptr %41, align 4, !tbaa !22
  %indvars.iv.next.i.i = add nuw nsw i64 %indvars.iv.i.i, 1
  %42 = load i32, ptr %36, align 8, !tbaa !19
  %43 = zext i32 %42 to i64
  %44 = icmp samesign ult i64 %indvars.iv.next.i.i, %43
  br i1 %44, label %.lr.ph.i.i, label %_ZN15_scoped_numeralI12mpfx_managerED2Ev.exit, !llvm.loop !26

45:                                               ; preds = %27, %14
  %46 = landingpad { ptr, i32 }
          catch ptr null
  %47 = extractvalue { ptr, i32 } %46, 0
  tail call void @__clang_call_terminate(ptr %47) #25
  unreachable

_ZN15_scoped_numeralI12mpfx_managerED2Ev.exit:    ; preds = %.lr.ph.i.i, %11, %_ZN6id_gen7recycleEj.exit.i.i
  call void @llvm.lifetime.end.p0(i64 16, ptr nonnull %6) #24
  %48 = load ptr, ptr %5, align 8, !tbaa !45
  %49 = load i32, ptr %7, align 8
  %.not.i.i7 = icmp ult i32 %49, 2
  br i1 %.not.i.i7, label %_ZN15_scoped_numeralI12mpfx_managerED2Ev.exit19, label %50

50:                                               ; preds = %_ZN15_scoped_numeralI12mpfx_managerED2Ev.exit
  %51 = lshr i32 %49, 1
  %52 = invoke noundef zeroext i1 @_ZN6memory16is_out_of_memoryEv()
          to label %.noexc.i8 unwind label %81

.noexc.i8:                                        ; preds = %50
  br i1 %52, label %_ZN6id_gen7recycleEj.exit.i.i10, label %53

53:                                               ; preds = %.noexc.i8
  %54 = getelementptr inbounds nuw i8, ptr %48, i64 40
  %55 = load ptr, ptr %54, align 8, !tbaa !3
  %56 = icmp eq ptr %55, null
  br i1 %56, label %63, label %57

57:                                               ; preds = %53
  %58 = getelementptr inbounds i8, ptr %55, i64 -4
  %59 = load i32, ptr %58, align 4, !tbaa !22
  %60 = getelementptr inbounds i8, ptr %55, i64 -8
  %61 = load i32, ptr %60, align 4, !tbaa !22
  %62 = icmp eq i32 %59, %61
  br i1 %62, label %63, label %_ZN6vectorIjLb0EjE9push_backERKj.exit.i.i.i9

63:                                               ; preds = %57, %53
  invoke void @_ZN6vectorIjLb0EjE13expand_vectorEv(ptr noundef nonnull align 8 dereferenceable(8) %54)
          to label %.noexc1.i15 unwind label %81

.noexc1.i15:                                      ; preds = %63
  %.pre.i.i.i.i16 = load ptr, ptr %54, align 8, !tbaa !3
  %.phi.trans.insert.i.i.i.i17 = getelementptr inbounds i8, ptr %.pre.i.i.i.i16, i64 -4
  %.pre2.i.i.i.i18 = load i32, ptr %.phi.trans.insert.i.i.i.i17, align 4, !tbaa !22
  br label %_ZN6vectorIjLb0EjE9push_backERKj.exit.i.i.i9

_ZN6vectorIjLb0EjE9push_backERKj.exit.i.i.i9:     ; preds = %.noexc1.i15, %57
  %64 = phi i32 [ %.pre2.i.i.i.i18, %.noexc1.i15 ], [ %59, %57 ]
  %65 = phi ptr [ %.pre.i.i.i.i16, %.noexc1.i15 ], [ %55, %57 ]
  %66 = getelementptr inbounds i8, ptr %65, i64 -4
  %67 = zext i32 %64 to i64
  %68 = getelementptr inbounds nuw i32, ptr %65, i64 %67
  store i32 %51, ptr %68, align 4, !tbaa !22
  %69 = add i32 %64, 1
  store i32 %69, ptr %66, align 4, !tbaa !22
  br label %_ZN6id_gen7recycleEj.exit.i.i10

_ZN6id_gen7recycleEj.exit.i.i10:                  ; preds = %_ZN6vectorIjLb0EjE9push_backERKj.exit.i.i.i9, %.noexc.i8
  %70 = getelementptr inbounds nuw i8, ptr %48, i64 16
  %71 = load ptr, ptr %70, align 8, !tbaa !3
  %72 = getelementptr inbounds nuw i8, ptr %48, i64 8
  %73 = load i32, ptr %72, align 8, !tbaa !19
  %74 = mul i32 %51, %73
  %75 = zext i32 %74 to i64
  %76 = getelementptr inbounds nuw i32, ptr %71, i64 %75
  %.not10.i.i11 = icmp eq i32 %73, 0
  br i1 %.not10.i.i11, label %_ZN15_scoped_numeralI12mpfx_managerED2Ev.exit19, label %.lr.ph.i.i12

.lr.ph.i.i12:                                     ; preds = %_ZN6id_gen7recycleEj.exit.i.i10, %.lr.ph.i.i12
  %indvars.iv.i.i13 = phi i64 [ %indvars.iv.next.i.i14, %.lr.ph.i.i12 ], [ 0, %_ZN6id_gen7recycleEj.exit.i.i10 ]
  %77 = getelementptr inbounds nuw i32, ptr %76, i64 %indvars.iv.i.i13
  store i32 0, ptr %77, align 4, !tbaa !22
  %indvars.iv.next.i.i14 = add nuw nsw i64 %indvars.iv.i.i13, 1
  %78 = load i32, ptr %72, align 8, !tbaa !19
  %79 = zext i32 %78 to i64
  %80 = icmp samesign ult i64 %indvars.iv.next.i.i14, %79
  br i1 %80, label %.lr.ph.i.i12, label %_ZN15_scoped_numeralI12mpfx_managerED2Ev.exit19, !llvm.loop !26

81:                                               ; preds = %63, %50
  %82 = landingpad { ptr, i32 }
          catch ptr null
  %83 = extractvalue { ptr, i32 } %82, 0
  tail call void @__clang_call_terminate(ptr %83) #25
  unreachable

_ZN15_scoped_numeralI12mpfx_managerED2Ev.exit19:  ; preds = %.lr.ph.i.i12, %_ZN15_scoped_numeralI12mpfx_managerED2Ev.exit, %_ZN6id_gen7recycleEj.exit.i.i10
  call void @llvm.lifetime.end.p0(i64 16, ptr nonnull %5) #24
  ret void

84:                                               ; preds = %10, %9, %4
  %85 = landingpad { ptr, i32 }
          cleanup
  call void @_ZN15_scoped_numeralI12mpfx_managerED2Ev(ptr noundef nonnull align 8 dereferenceable(12) %6) #24
  call void @llvm.lifetime.end.p0(i64 16, ptr nonnull %6) #24
  call void @_ZN15_scoped_numeralI12mpfx_managerED2Ev(ptr noundef nonnull align 8 dereferenceable(12) %5) #24
  call void @llvm.lifetime.end.p0(i64 16, ptr nonnull %5) #24
  resume { ptr, i32 } %85
}